target datalayout = "e-m:e-p270:32:32-p271:32:32-p272:64:64-i64:64-i128:128-f80:128-n8:16:32:64-S128"
target triple = "x86_64-pc-linux-gnu"

%struct.mz_stream_s = type { ptr, i32, i64, ptr, i32, i64, ptr, ptr, ptr, ptr, ptr, i32, i64, i64 }
%struct.inflate_state = type { %struct.tinfl_decompressor_tag, i32, i32, i32, i32, i32, [32768 x i8], i32 }
%struct.tinfl_decompressor_tag = type { i32, i32, i32, i32, i32, i32, i32, i32, i32, i32, i32, [3 x i32], i64, i64, [3 x %struct.tinfl_huff_table], [4 x i8], [457 x i8] }
%struct.tinfl_huff_table = type { [288 x i8], [1024 x i16], [576 x i16] }

; Function Attrs: mustprogress uwtable
define i32 @mz_inflateInit2(ptr noundef %0, i32 noundef %1) #5 {
  %3 = alloca i32, align 4
  %4 = alloca ptr, align 8
  %5 = alloca i32, align 4
  %6 = alloca ptr, align 8
  store ptr %0, ptr %4, align 8
  store i32 %1, ptr %5, align 4
  %7 = load ptr, ptr %4, align 8
  %8 = icmp ne ptr %7, null
  br i1 %8, label %10, label %9

9:                                                ; preds = %2
  store i32 -2, ptr %3, align 4
  br label %79

10:                                               ; preds = %2
  %11 = load i32, ptr %5, align 4
  %12 = icmp ne i32 %11, 15
  br i1 %12, label %13, label %18

13:                                               ; preds = %10
  %14 = load i32, ptr %5, align 4
  %15 = sub nsw i32 0, %14
  %16 = icmp ne i32 %15, 15
  br i1 %16, label %17, label %18

17:                                               ; preds = %13
  store i32 -10000, ptr %3, align 4
  br label %79

18:                                               ; preds = %13, %10
  %19 = load ptr, ptr %4, align 8
  %20 = getelementptr inbounds %struct.mz_stream_s, ptr %19, i32 0, i32 11
  store i32 0, ptr %20, align 8
  %21 = load ptr, ptr %4, align 8
  %22 = getelementptr inbounds %struct.mz_stream_s, ptr %21, i32 0, i32 12
  store i64 0, ptr %22, align 8
  %23 = load ptr, ptr %4, align 8
  %24 = getelementptr inbounds %struct.mz_stream_s, ptr %23, i32 0, i32 6
  store ptr null, ptr %24, align 8
  %25 = load ptr, ptr %4, align 8
  %26 = getelementptr inbounds %struct.mz_stream_s, ptr %25, i32 0, i32 2
  store i64 0, ptr %26, align 8
  %27 = load ptr, ptr %4, align 8
  %28 = getelementptr inbounds %struct.mz_stream_s, ptr %27, i32 0, i32 5
  store i64 0, ptr %28, align 8
  %29 = load ptr, ptr %4, align 8
  %30 = getelementptr inbounds %struct.mz_stream_s, ptr %29, i32 0, i32 13
  store i64 0, ptr %30, align 8
  %31 = load ptr, ptr %4, align 8
  %32 = getelementptr inbounds %struct.mz_stream_s, ptr %31, i32 0, i32 8
  %33 = load ptr, ptr %32, align 8
  %34 = icmp ne ptr %33, null
  br i1 %34, label %38, label %35

35:                                               ; preds = %18
  %36 = load ptr, ptr %4, align 8
  %37 = getelementptr inbounds %struct.mz_stream_s, ptr %36, i32 0, i32 8
  store ptr @_ZL14def_alloc_funcPvmm, ptr %37, align 8
  br label %38

38:                                               ; preds = %35, %18
  %39 = load ptr, ptr %4, align 8
  %40 = getelementptr inbounds %struct.mz_stream_s, ptr %39, i32 0, i32 9
  %41 = load ptr, ptr %40, align 8
  %42 = icmp ne ptr %41, null
  br i1 %42, label %46, label %43

43:                                               ; preds = %38
  %44 = load ptr, ptr %4, align 8
  %45 = getelementptr inbounds %struct.mz_stream_s, ptr %44, i32 0, i32 9
  store ptr @_ZL13def_free_funcPvS_, ptr %45, align 8
  br label %46

46:                                               ; preds = %43, %38
  %47 = load ptr, ptr %4, align 8
  %48 = getelementptr inbounds %struct.mz_stream_s, ptr %47, i32 0, i32 8
  %49 = load ptr, ptr %48, align 8
  %50 = load ptr, ptr %4, align 8
  %51 = getelementptr inbounds %struct.mz_stream_s, ptr %50, i32 0, i32 10
  %52 = load ptr, ptr %51, align 8
  %53 = call noundef ptr %49(ptr noundef %52, i64 noundef 1, i64 noundef 43792)
  store ptr %53, ptr %6, align 8
  %54 = load ptr, ptr %6, align 8
  %55 = icmp ne ptr %54, null
  br i1 %55, label %57, label %56

56:                                               ; preds = %46
  store i32 -4, ptr %3, align 4
  br label %79

57:                                               ; preds = %46
  %58 = load ptr, ptr %6, align 8
  %59 = load ptr, ptr %4, align 8
  %60 = getelementptr inbounds %struct.mz_stream_s, ptr %59, i32 0, i32 7
  store ptr %58, ptr %60, align 8
  br label %61

61:                                               ; preds = %57
  %62 = load ptr, ptr %6, align 8
  %63 = getelementptr inbounds %struct.inflate_state, ptr %62, i32 0, i32 0
  %64 = getelementptr inbounds %struct.tinfl_decompressor_tag, ptr %63, i32 0, i32 0
  store i32 0, ptr %64, align 8
  br label %65

65:                                               ; preds = %61
  %66 = load ptr, ptr %6, align 8
  %67 = getelementptr inbounds %struct.inflate_state, ptr %66, i32 0, i32 1
  store i32 0, ptr %67, align 8
  %68 = load ptr, ptr %6, align 8
  %69 = getelementptr inbounds %struct.inflate_state, ptr %68, i32 0, i32 2
  store i32 0, ptr %69, align 4
  %70 = load ptr, ptr %6, align 8
  %71 = getelementptr inbounds %struct.inflate_state, ptr %70, i32 0, i32 7
  store i32 1, ptr %71, align 4
  %72 = load ptr, ptr %6, align 8
  %73 = getelementptr inbounds %struct.inflate_state, ptr %72, i32 0, i32 3
  store i32 1, ptr %73, align 8
  %74 = load ptr, ptr %6, align 8
  %75 = getelementptr inbounds %struct.inflate_state, ptr %74, i32 0, i32 4
  store i32 0, ptr %75, align 4
  %76 = load i32, ptr %5, align 4
  %77 = load ptr, ptr %6, align 8
  %78 = getelementptr inbounds %struct.inflate_state, ptr %77, i32 0, i32 5
  store i32 %76, ptr %78, align 8
  store i32 0, ptr %3, align 4
  br label %79

79:                                               ; preds = %65, %56, %17, %9
  %80 = load i32, ptr %3, align 4
  ret i32 %80
}

; Function Attrs: mustprogress uwtable
define i32 @mz_inflateInit(ptr noundef %0) #5 {
  %2 = alloca ptr, align 8
  store ptr %0, ptr %2, align 8
  %3 = load ptr, ptr %2, align 8
  %4 = call i32 @mz_inflateInit2(ptr noundef %3, i32 noundef 15)
  ret i32 %4
}