; Function Attrs: mustprogress uwtable
define noundef i32 @mz_inflateInit(ptr noundef %0) local_unnamed_addr #9 {
  %.not.i = icmp eq ptr %0, null
  br i1 %.not.i, label %mz_inflateInit2.exit, label %2

2:                                                ; preds = %1
  %3 = getelementptr inbounds i8, ptr %0, i64 88
  store i32 0, ptr %3, align 8
  %4 = getelementptr inbounds i8, ptr %0, i64 96
  %5 = getelementptr inbounds i8, ptr %0, i64 16
  store i64 0, ptr %5, align 8
  %6 = getelementptr inbounds i8, ptr %0, i64 40
  %7 = getelementptr inbounds i8, ptr %0, i64 64
  tail call void @llvm.memset.p0.i64(ptr noundef nonnull align 8 dereferenceable(16) %6, i8 0, i64 16, i1 false)
  tail call void @llvm.memset.p0.i64(ptr noundef nonnull align 8 dereferenceable(16) %4, i8 0, i64 16, i1 false)
  %8 = load ptr, ptr %7, align 8
  %.not31.i = icmp eq ptr %8, null
  br i1 %.not31.i, label %9, label %10

9:                                                ; preds = %2
  store ptr @_ZL14def_alloc_funcPvmm, ptr %7, align 8
  br label %10

10:                                               ; preds = %9, %2
  %11 = phi ptr [ @_ZL14def_alloc_funcPvmm, %9 ], [ %8, %2 ]
  %12 = getelementptr inbounds i8, ptr %0, i64 72
  %13 = load ptr, ptr %12, align 8
  %.not32.i = icmp eq ptr %13, null
  br i1 %.not32.i, label %14, label %15

14:                                               ; preds = %10
  store ptr @_ZL13def_free_funcPvS_, ptr %12, align 8
  br label %15

15:                                               ; preds = %14, %10
  %16 = getelementptr inbounds i8, ptr %0, i64 80
  %17 = load ptr, ptr %16, align 8
  %18 = tail call noundef ptr %11(ptr noundef %17, i64 noundef 1, i64 noundef 43792)
  %.not33.i = icmp eq ptr %18, null
  br i1 %.not33.i, label %mz_inflateInit2.exit, label %19

19:                                               ; preds = %15
  %20 = getelementptr inbounds i8, ptr %0, i64 56
  store ptr %18, ptr %20, align 8
  store i32 0, ptr %18, align 8
  %21 = getelementptr inbounds i8, ptr %18, i64 11000
  %22 = getelementptr inbounds i8, ptr %18, i64 43788
  store i32 1, ptr %22, align 4
  store <4 x i32> <i32 0, i32 0, i32 1, i32 0>, ptr %21, align 8
  %23 = getelementptr inbounds i8, ptr %18, i64 11016
  store i32 15, ptr %23, align 8
  br label %mz_inflateInit2.exit

mz_inflateInit2.exit:                             ; preds = %1, %15, %19
  %.0.i = phi i32 [ 0, %19 ], [ -2, %1 ], [ -4, %15 ]
  ret i32 %.0.i
}